Certificate:
    Data:
        Version: 3 (0x2)
        Serial Number:
            f9:3d:b5:17:42:7d:15:fa
    Signature Algorithm: sha256WithRSAEncryption
        Issuer: CN = localhost
        Validity
            Not Before: May 17 21:59:22 2019 GMT
            Not After : Jun 16 21:59:22 2019 GMT
        Subject: CN = localhost
        Subject Public Key Info:
            Public Key Algorithm: rsaEncryption
                Public-Key: (2048 bit)
                Modulus:
                    00:c4:05:75:25:9a:ad:76:d7:a1:0e:55:4c:9d:96:
                    7a:87:59:b2:e8:b0:3c:07:79:29:eb:82:3f:eb:4f:
                    bd:f1:9c:65:3f:5e:a7:6f:48:2d:24:36:85:18:6d:
                    42:fa:94:7e:db:83:c6:b6:69:4d:46:ac:04:77:f4:
                    f5:18:a8:fb:c2:4b:3d:67:db:53:44:de:bd:c8:16:
                    61:b1:f2:6f:1b:ff:84:3c:4f:f7:a3:73:1a:81:8d:
                    6b:e3:d7:88:95:5e:96:0a:09:46:c1:b7:a4:34:80:
                    61:3d:42:da:74:16:e1:0b:8d:26:50:38:73:2f:3e:
                    f5:41:70:27:e6:fe:9d:47:14:97:89:57:cb:e1:71:
                    d1:f0:85:da:3f:e2:3d:58:7e:9d:84:e5:40:f5:cd:
                    13:fc:d5:70:ae:cb:48:f8:59:59:be:11:78:66:40:
                    a7:20:d2:18:5b:38:77:72:02:e9:bb:bc:22:8a:ba:
                    cf:6d:7a:e4:38:ff:ef:6c:93:af:40:6e:9f:41:49:
                    4a:5a:e4:5b:be:fc:3a:be:d4:62:7c:90:5b:5e:00:
                    fc:33:fd:ee:12:d1:17:2c:36:bc:38:83:97:6c:ca:
                    ca:e4:ac:c4:12:88:39:46:ca:18:c4:d8:0e:9b:0f:
                    a7:fa:46:6c:3f:de:98:44:1c:6e:b2:ee:37:3a:54:
                    d2:07
                Exponent: 65537 (0x10001)
        X509v3 extensions:
            X509v3 Subject Key Identifier: 
                79:6C:F8:5B:5E:BD:58:6D:0C:E1:A6:B3:8A:3E:6F:B3:7D:25:DA:4F
            X509v3 Authority Key Identifier: 
                keyid:79:6C:F8:5B:5E:BD:58:6D:0C:E1:A6:B3:8A:3E:6F:B3:7D:25:DA:4F

            X509v3 Basic Constraints: critical
                CA:TRUE
    Signature Algorithm: sha256WithRSAEncryption
         46:4f:d0:d2:58:8b:b5:b0:a7:0f:0d:e4:56:28:f3:e6:ca:3f:
         ab:53:ef:be:9d:42:4d:a5:dc:3b:22:d3:b3:f1:f8:50:11:2d:
         f3:a3:10:1c:c6:85:aa:87:4e:0d:6d:e1:9d:2e:36:ff:cc:70:
         48:c0:dc:30:37:aa:ea:a1:e5:c7:31:39:c8:ce:a5:8b:c3:31:
         b9:6b:35:15:21:2d:92:50:a1:c8:55:64:d1:a5:ee:ad:d0:86:
         46:5e:25:dd:19:cf:98:6b:89:85:e7:91:b3:44:7a:03:7b:58:
         1c:de:0d:60:07:68:42:aa:d5:f7:37:68:6b:07:d5:dd:cc:6f:
         4d:8d:07:51:cb:e7:b8:b3:2f:e3:37:6d:d9:fe:85:69:f9:ed:
         52:2c:78:b0:80:c9:be:c3:77:03:90:3f:2a:29:10:4f:a7:07:
         df:5f:d7:a7:7f:83:59:80:9e:99:0d:50:3c:6c:db:aa:41:36:
         26:e1:bd:18:b8:78:84:61:35:d0:7b:4f:4b:34:a6:5e:3c:80:
         8f:33:d5:3f:68:93:62:ae:3c:5c:47:8e:bb:ca:19:25:65:35:
         01:c1:06:f2:fd:f2:73:2f:ee:8a:a3:58:42:e9:2c:a1:75:2b:
         3a:b0:26:39:f9:b1:93:42:6e:4d:a9:62:17:23:40:5a:02:25:
         9c:e3:4f:10
-----BEGIN CERTIFICATE-----
MIIC/jCCAeagAwIBAgIJAPk9tRdCfRX6MA0GCSqGSIb3DQEBCwUAMBQxEjAQBgNV
BAMMCWxvY2FsaG9zdDAeFw0xOTA1MTcyMTU5MjJaFw0xOTA2MTYyMTU5MjJaMBQx
EjAQBgNVBAMMCWxvY2FsaG9zdDCCASIwDQYJKoZIhvcNAQEBBQADggEPADCCAQoC
ggEBAMQFdSWarXbXoQ5VTJ2WeodZsuiwPAd5KeuCP+tPvfGcZT9ep29ILSQ2hRht
QvqUftuDxrZpTUasBHf09Rio+8JLPWfbU0TevcgWYbHybxv/hDxP96NzGoGNa+PX
iJVelgoJRsG3pDSAYT1C2nQW4QuNJlA4cy8+9UFwJ+b+nUcUl4lXy+Fx0fCF2j/i
PVh+nYTlQPXNE/zVcK7LSPhZWb4ReGZApyDSGFs4d3IC6bu8Ioq6z2165Dj/72yT
r0Bun0FJSlrkW778Or7UYnyQW14A/DP97hLRFyw2vDiDl2zKyuSsxBKIOUbKGMTY
DpsPp/pGbD/emEQcbrLuNzpU0gcCAwEAAaNTMFEwHQYDVR0OBBYEFHls+FtevVht
DOGms4o+b7N9JdpPMB8GA1UdIwQYMBaAFHls+FtevVhtDOGms4o+b7N9JdpPMA8G
A1UdEwEB/wQFMAMBAf8wDQYJKoZIhvcNAQELBQADggEBAEZP0NJYi7Wwpw8N5FYo
8+bKP6tT776dQk2l3Dsi07Px+FARLfOjEBzGhaqHTg1t4Z0uNv/McEjA3DA3quqh
5ccxOcjOpYvDMblrNRUhLZJQochVZNGl7q3QhkZeJd0Zz5hriYXnkbNEegN7WBze
DWAHaEKq1fc3aGsH1d3Mb02NB1HL57izL+M3bdn+hWn57VIseLCAyb7DdwOQPyop
EE+nB99f16d/g1mAnpkNUDxs26pBNibhvRi4eIRhNdB7T0s0pl48gI8z1T9ok2Ku
PFxHjrvKGSVlNQHBBvL98nMv7oqjWELpLKF1KzqwJjn5sZNCbk2pYhcjQFoCJZzj
TxA=
-----END CERTIFICATE-----
